target datalayout = "e-m:e-p270:32:32-p271:32:32-p272:64:64-i64:64-i128:128-f80:128-n8:16:32:64-S128"
target triple = "x86_64-pc-linux-gnu"

%"class.std::__cxx11::basic_string" = type { %"struct.std::__cxx11::basic_string<char>::_Alloc_hider", i64, %union.anon }
%"struct.std::__cxx11::basic_string<char>::_Alloc_hider" = type { ptr }
%union.anon = type { i64, [8 x i8] }
%"class.std::filesystem::__cxx11::path" = type { %"class.std::__cxx11::basic_string", %"struct.std::filesystem::__cxx11::path::_List" }
%"struct.std::filesystem::__cxx11::path::_List" = type { %"class.std::unique_ptr" }
%"class.std::unique_ptr" = type { %"struct.std::__uniq_ptr_data" }
%"struct.std::__uniq_ptr_data" = type { %"class.std::__uniq_ptr_impl" }
%"class.std::__uniq_ptr_impl" = type { %"class.std::tuple" }
%"class.std::tuple" = type { %"struct.std::_Tuple_impl" }
%"struct.std::_Tuple_impl" = type { %"struct.std::_Head_base.5" }
%"struct.std::_Head_base.5" = type { ptr }

@.str.66 = private unnamed_addr constant [131 x i8] c"generated/home/dtcxzyw/WorkSpace/Projects/compilers/llvm-opt-benchmark/bench/gromacs/gromacs/src/gromacs/gmxana/gmx_dielectric.cpp\00", align 1
@.str.80 = private unnamed_addr constant [47 x i8] c"Begin time %f not in x-domain [%f through %f]\0A\00", align 1
@.str.81 = private unnamed_addr constant [42 x i8] c"nbegin = %d, x[nbegin] = %g, tbegin = %g\0A\00", align 1

; Function Attrs: inlinehint mustprogress nounwind uwtable
define linkonce_odr noundef float @_ZSt3absf(float noundef %0) #6 comdat {
  %2 = alloca float, align 4
  store float %0, ptr %2, align 4, !tbaa !33
  %3 = load float, ptr %2, align 4, !tbaa !33
  %4 = call float @llvm.fabs.f32(float %3)
  ret float %4
}

; Function Attrs: mustprogress uwtable
define internal noundef i32 @_ZL11calc_nbeginiPff(i32 noundef %0, ptr noundef %1, float noundef %2) #0 personality ptr @__gxx_personality_v0 {
  %4 = alloca i32, align 4
  %5 = alloca ptr, align 8
  %6 = alloca float, align 4
  %7 = alloca i32, align 4
  %8 = alloca %"class.std::filesystem::__cxx11::path", align 8
  %9 = alloca ptr, align 8
  %10 = alloca i32, align 4
  store i32 %0, ptr %4, align 4, !tbaa !4
  store ptr %1, ptr %5, align 8, !tbaa !39
  store float %2, ptr %6, align 4, !tbaa !33
  call void @llvm.lifetime.start.p0(i64 4, ptr %7) #18
  store i32 0, ptr %7, align 4, !tbaa !4
  br label %11

11:                                               ; preds = %26, %3
  %12 = load i32, ptr %7, align 4, !tbaa !4
  %13 = load i32, ptr %4, align 4, !tbaa !4
  %14 = icmp slt i32 %12, %13
  br i1 %14, label %15, label %23

15:                                               ; preds = %11
  %16 = load ptr, ptr %5, align 8, !tbaa !39
  %17 = load i32, ptr %7, align 4, !tbaa !4
  %18 = sext i32 %17 to i64
  %19 = getelementptr inbounds float, ptr %16, i64 %18
  %20 = load float, ptr %19, align 4, !tbaa !33
  %21 = load float, ptr %6, align 4, !tbaa !33
  %22 = fcmp ole float %20, %21
  br label %23

23:                                               ; preds = %15, %11
  %24 = phi i1 [ false, %11 ], [ %22, %15 ]
  br i1 %24, label %25, label %29

25:                                               ; preds = %23
  br label %26

26:                                               ; preds = %25
  %27 = load i32, ptr %7, align 4, !tbaa !4
  %28 = add nsw i32 %27, 1
  store i32 %28, ptr %7, align 4, !tbaa !4
  br label %11, !llvm.loop !69

29:                                               ; preds = %23
  %30 = load i32, ptr %7, align 4, !tbaa !4
  %31 = load i32, ptr %4, align 4, !tbaa !4
  %32 = icmp eq i32 %30, %31
  br i1 %32, label %36, label %33

33:                                               ; preds = %29
  %34 = load i32, ptr %7, align 4, !tbaa !4
  %35 = icmp eq i32 %34, 0
  br i1 %35, label %36, label %55

36:                                               ; preds = %33, %29
  call void @llvm.lifetime.start.p0(i64 40, ptr %8) #18
  call void @_ZNSt10filesystem7__cxx114pathC2IA131_cS1_EERKT_NS1_6formatE(ptr noundef nonnull align 8 dereferenceable(40) %8, ptr noundef nonnull align 1 dereferenceable(131) @.str.66, i8 noundef zeroext 2)
  %37 = load float, ptr %6, align 4, !tbaa !33
  %38 = fpext float %37 to double
  %39 = load ptr, ptr %5, align 8, !tbaa !39
  %40 = getelementptr inbounds float, ptr %39, i64 0
  %41 = load float, ptr %40, align 4, !tbaa !33
  %42 = fpext float %41 to double
  %43 = load ptr, ptr %5, align 8, !tbaa !39
  %44 = load i32, ptr %4, align 4, !tbaa !4
  %45 = sub nsw i32 %44, 1
  %46 = sext i32 %45 to i64
  %47 = getelementptr inbounds float, ptr %43, i64 %46
  %48 = load float, ptr %47, align 4, !tbaa !33
  %49 = fpext float %48 to double
  invoke void (i32, ptr, i32, ptr, ...) @_Z9gmx_fataliRKNSt10filesystem7__cxx114pathEiPKcz(i32 noundef 0, ptr noundef nonnull align 8 dereferenceable(40) %8, i32 noundef 82, ptr noundef @.str.80, double noundef %38, double noundef %42, double noundef %49) #19
          to label %50 unwind label %51

50:                                               ; preds = %36
  unreachable

51:                                               ; preds = %36
  %52 = landingpad { ptr, i32 }
          cleanup
  %53 = extractvalue { ptr, i32 } %52, 0
  store ptr %53, ptr %9, align 8
  %54 = extractvalue { ptr, i32 } %52, 1
  store i32 %54, ptr %10, align 4
  call void @_ZNSt10filesystem7__cxx114pathD2Ev(ptr noundef nonnull align 8 dereferenceable(40) %8) #18
  call void @llvm.lifetime.end.p0(i64 40, ptr %8) #18
  call void @llvm.lifetime.end.p0(i64 4, ptr %7) #18
  br label %89

55:                                               ; preds = %33
  %56 = load ptr, ptr %5, align 8, !tbaa !39
  %57 = load i32, ptr %7, align 4, !tbaa !4
  %58 = sext i32 %57 to i64
  %59 = getelementptr inbounds float, ptr %56, i64 %58
  %60 = load float, ptr %59, align 4, !tbaa !33
  %61 = load float, ptr %6, align 4, !tbaa !33
  %62 = fsub float %60, %61
  %63 = call noundef float @_ZSt3absf(float noundef %62)
  %64 = load ptr, ptr %5, align 8, !tbaa !39
  %65 = load i32, ptr %7, align 4, !tbaa !4
  %66 = sub nsw i32 %65, 1
  %67 = sext i32 %66 to i64
  %68 = getelementptr inbounds float, ptr %64, i64 %67
  %69 = load float, ptr %68, align 4, !tbaa !33
  %70 = load float, ptr %6, align 4, !tbaa !33
  %71 = fsub float %69, %70
  %72 = call noundef float @_ZSt3absf(float noundef %71)
  %73 = fcmp ogt float %63, %72
  br i1 %73, label %74, label %77

74:                                               ; preds = %55
  %75 = load i32, ptr %7, align 4, !tbaa !4
  %76 = add nsw i32 %75, -1
  store i32 %76, ptr %7, align 4, !tbaa !4
  br label %77

77:                                               ; preds = %74, %55
  %78 = load i32, ptr %7, align 4, !tbaa !4
  %79 = load ptr, ptr %5, align 8, !tbaa !39
  %80 = load i32, ptr %7, align 4, !tbaa !4
  %81 = sext i32 %80 to i64
  %82 = getelementptr inbounds float, ptr %79, i64 %81
  %83 = load float, ptr %82, align 4, !tbaa !33
  %84 = fpext float %83 to double
  %85 = load float, ptr %6, align 4, !tbaa !33
  %86 = fpext float %85 to double
  %87 = call i32 (ptr, ...) @printf(ptr noundef @.str.81, i32 noundef %78, double noundef %84, double noundef %86)
  %88 = load i32, ptr %7, align 4, !tbaa !4
  call void @llvm.lifetime.end.p0(i64 4, ptr %7) #18
  ret i32 %88

89:                                               ; preds = %51
  %90 = load ptr, ptr %9, align 8
  %91 = load i32, ptr %10, align 4
  %92 = insertvalue { ptr, i32 } poison, ptr %90, 0
  %93 = insertvalue { ptr, i32 } %92, i32 %91, 1
  resume { ptr, i32 } %93
}