; Function Attrs: mustprogress uwtable
define internal fastcc noundef i32 @_ZL11calc_nbeginiPff(i32 noundef %0, ptr noundef readonly captures(none) %1, float noundef %2) unnamed_addr #6 personality ptr @__gxx_personality_v0 {
  %4 = alloca %"class.std::filesystem::__cxx11::path", align 8
  %5 = icmp sgt i32 %0, 0
  br i1 %5, label %.lr.ph.preheader, label %.critedge.thread

.lr.ph.preheader:                                 ; preds = %3
  %wide.trip.count = zext nneg i32 %0 to i64
  br label %.lr.ph

.lr.ph:                                           ; preds = %.lr.ph.preheader, %9
  %indvars.iv = phi i64 [ 0, %.lr.ph.preheader ], [ %indvars.iv.next, %9 ]
  %6 = getelementptr inbounds nuw float, ptr %1, i64 %indvars.iv
  %7 = load float, ptr %6, align 4, !tbaa !39
  %8 = fcmp ugt float %7, %2
  br i1 %8, label %.critedge, label %9

9:                                                ; preds = %.lr.ph
  %indvars.iv.next = add nuw nsw i64 %indvars.iv, 1
  %exitcond.not = icmp eq i64 %indvars.iv.next, %wide.trip.count
  br i1 %exitcond.not, label %.critedge.thread, label %.lr.ph, !llvm.loop !73

.critedge:                                        ; preds = %.lr.ph
  %10 = trunc nuw nsw i64 %indvars.iv to i32
  %11 = icmp eq i32 %0, %10
  %12 = icmp eq i64 %indvars.iv, 0
  %or.cond = or i1 %11, %12
  br i1 %or.cond, label %.critedge.thread, label %24

.critedge.thread:                                 ; preds = %9, %3, %.critedge
  call void @llvm.lifetime.start.p0(i64 40, ptr nonnull %4) #17
  call void @_ZNSt10filesystem7__cxx114pathC2IA131_cS1_EERKT_NS1_6formatE(ptr noundef nonnull align 8 dereferenceable(40) %4, ptr noundef nonnull align 1 dereferenceable(131) @.str.66, i8 noundef zeroext 2)
  %13 = fpext float %2 to double
  %14 = load float, ptr %1, align 4, !tbaa !39
  %15 = fpext float %14 to double
  %16 = sext i32 %0 to i64
  %17 = getelementptr float, ptr %1, i64 %16
  %18 = getelementptr i8, ptr %17, i64 -4
  %19 = load float, ptr %18, align 4, !tbaa !39
  %20 = fpext float %19 to double
  invoke void (i32, ptr, i32, ptr, ...) @_Z9gmx_fataliRKNSt10filesystem7__cxx114pathEiPKcz(i32 noundef 0, ptr noundef nonnull align 8 dereferenceable(40) %4, i32 noundef 82, ptr noundef nonnull @.str.80, double noundef %13, double noundef %15, double noundef %20) #19
          to label %21 unwind label %22

21:                                               ; preds = %.critedge.thread
  unreachable

22:                                               ; preds = %.critedge.thread
  %23 = landingpad { ptr, i32 }
          cleanup
  call void @_ZNSt10filesystem7__cxx114pathD2Ev(ptr noundef nonnull align 8 dereferenceable(40) %4) #17
  call void @llvm.lifetime.end.p0(i64 40, ptr nonnull %4) #17
  resume { ptr, i32 } %23

24:                                               ; preds = %.critedge
  %25 = and i64 %indvars.iv, 4294967295
  %26 = getelementptr inbounds nuw float, ptr %1, i64 %25
  %27 = load float, ptr %26, align 4, !tbaa !39
  %28 = fsub float %27, %2
  %29 = tail call noundef float @llvm.fabs.f32(float %28)
  %30 = getelementptr i8, ptr %26, i64 -4
  %31 = load float, ptr %30, align 4, !tbaa !39
  %32 = fsub float %31, %2
  %33 = tail call noundef float @llvm.fabs.f32(float %32)
  %34 = fcmp ogt float %29, %33
  %35 = sext i1 %34 to i32
  %.1 = add nsw i32 %10, %35
  %36 = sext i32 %.1 to i64
  %37 = getelementptr inbounds float, ptr %1, i64 %36
  %38 = load float, ptr %37, align 4, !tbaa !39
  %39 = fpext float %38 to double
  %40 = fpext float %2 to double
  %41 = tail call i32 (ptr, ...) @printf(ptr noundef nonnull dereferenceable(1) @.str.81, i32 noundef %.1, double noundef %39, double noundef %40)
  ret i32 %.1
}